target datalayout = "e-m:e-p270:32:32-p271:32:32-p272:64:64-i64:64-i128:128-f80:128-n8:16:32:64-S128"
target triple = "x86_64-pc-linux-gnu"

; Function Attrs: cold nounwind optsize uwtable
define internal void @build_xlaw_table(ptr noundef %0, ptr noundef %1, i32 noundef %2) #0 {
  %4 = alloca ptr, align 8
  %5 = alloca ptr, align 8
  %6 = alloca i32, align 4
  %7 = alloca i32, align 4
  %8 = alloca i32, align 4
  %9 = alloca i32, align 4
  %10 = alloca i32, align 4
  %11 = alloca i32, align 4
  store ptr %0, ptr %4, align 8, !tbaa !50
  store ptr %1, ptr %5, align 8, !tbaa !143
  store i32 %2, ptr %6, align 4, !tbaa !32
  call void @llvm.lifetime.start.p0(i64 4, ptr %7) #8
  call void @llvm.lifetime.start.p0(i64 4, ptr %8) #8
  call void @llvm.lifetime.start.p0(i64 4, ptr %9) #8
  call void @llvm.lifetime.start.p0(i64 4, ptr %10) #8
  call void @llvm.lifetime.start.p0(i64 4, ptr %11) #8
  store i32 1, ptr %8, align 4, !tbaa !32
  %12 = load i32, ptr %6, align 4, !tbaa !32
  %13 = trunc i32 %12 to i8
  %14 = load ptr, ptr %4, align 8, !tbaa !50
  %15 = getelementptr inbounds i8, ptr %14, i64 8192
  store i8 %13, ptr %15, align 1, !tbaa !67
  store i32 0, ptr %7, align 4, !tbaa !32
  br label %16

16:                                               ; preds = %66, %3
  %17 = load i32, ptr %7, align 4, !tbaa !32
  %18 = icmp slt i32 %17, 127
  br i1 %18, label %19, label %69

19:                                               ; preds = %16
  %20 = load ptr, ptr %5, align 8, !tbaa !143
  %21 = load i32, ptr %7, align 4, !tbaa !32
  %22 = load i32, ptr %6, align 4, !tbaa !32
  %23 = xor i32 %21, %22
  %24 = trunc i32 %23 to i8
  %25 = call i32 %20(i8 noundef zeroext %24)
  store i32 %25, ptr %10, align 4, !tbaa !32
  %26 = load ptr, ptr %5, align 8, !tbaa !143
  %27 = load i32, ptr %7, align 4, !tbaa !32
  %28 = add nsw i32 %27, 1
  %29 = load i32, ptr %6, align 4, !tbaa !32
  %30 = xor i32 %28, %29
  %31 = trunc i32 %30 to i8
  %32 = call i32 %26(i8 noundef zeroext %31)
  store i32 %32, ptr %11, align 4, !tbaa !32
  %33 = load i32, ptr %10, align 4, !tbaa !32
  %34 = load i32, ptr %11, align 4, !tbaa !32
  %35 = add nsw i32 %33, %34
  %36 = add nsw i32 %35, 4
  %37 = ashr i32 %36, 3
  store i32 %37, ptr %9, align 4, !tbaa !32
  br label %38

38:                                               ; preds = %62, %19
  %39 = load i32, ptr %8, align 4, !tbaa !32
  %40 = load i32, ptr %9, align 4, !tbaa !32
  %41 = icmp slt i32 %39, %40
  br i1 %41, label %42, label %65

42:                                               ; preds = %38
  %43 = load i32, ptr %7, align 4, !tbaa !32
  %44 = load i32, ptr %6, align 4, !tbaa !32
  %45 = xor i32 %44, 128
  %46 = xor i32 %43, %45
  %47 = trunc i32 %46 to i8
  %48 = load ptr, ptr %4, align 8, !tbaa !50
  %49 = load i32, ptr %8, align 4, !tbaa !32
  %50 = sub nsw i32 8192, %49
  %51 = sext i32 %50 to i64
  %52 = getelementptr inbounds i8, ptr %48, i64 %51
  store i8 %47, ptr %52, align 1, !tbaa !67
  %53 = load i32, ptr %7, align 4, !tbaa !32
  %54 = load i32, ptr %6, align 4, !tbaa !32
  %55 = xor i32 %53, %54
  %56 = trunc i32 %55 to i8
  %57 = load ptr, ptr %4, align 8, !tbaa !50
  %58 = load i32, ptr %8, align 4, !tbaa !32
  %59 = add nsw i32 8192, %58
  %60 = sext i32 %59 to i64
  %61 = getelementptr inbounds i8, ptr %57, i64 %60
  store i8 %56, ptr %61, align 1, !tbaa !67
  br label %62

62:                                               ; preds = %42
  %63 = load i32, ptr %8, align 4, !tbaa !32
  %64 = add nsw i32 %63, 1
  store i32 %64, ptr %8, align 4, !tbaa !32
  br label %38, !llvm.loop !144

65:                                               ; preds = %38
  br label %66

66:                                               ; preds = %65
  %67 = load i32, ptr %7, align 4, !tbaa !32
  %68 = add nsw i32 %67, 1
  store i32 %68, ptr %7, align 4, !tbaa !32
  br label %16, !llvm.loop !145

69:                                               ; preds = %16
  br label %70

70:                                               ; preds = %91, %69
  %71 = load i32, ptr %8, align 4, !tbaa !32
  %72 = icmp slt i32 %71, 8192
  br i1 %72, label %73, label %94

73:                                               ; preds = %70
  %74 = load i32, ptr %6, align 4, !tbaa !32
  %75 = xor i32 %74, 128
  %76 = xor i32 127, %75
  %77 = trunc i32 %76 to i8
  %78 = load ptr, ptr %4, align 8, !tbaa !50
  %79 = load i32, ptr %8, align 4, !tbaa !32
  %80 = sub nsw i32 8192, %79
  %81 = sext i32 %80 to i64
  %82 = getelementptr inbounds i8, ptr %78, i64 %81
  store i8 %77, ptr %82, align 1, !tbaa !67
  %83 = load i32, ptr %6, align 4, !tbaa !32
  %84 = xor i32 127, %83
  %85 = trunc i32 %84 to i8
  %86 = load ptr, ptr %4, align 8, !tbaa !50
  %87 = load i32, ptr %8, align 4, !tbaa !32
  %88 = add nsw i32 8192, %87
  %89 = sext i32 %88 to i64
  %90 = getelementptr inbounds i8, ptr %86, i64 %89
  store i8 %85, ptr %90, align 1, !tbaa !67
  br label %91

91:                                               ; preds = %73
  %92 = load i32, ptr %8, align 4, !tbaa !32
  %93 = add nsw i32 %92, 1
  store i32 %93, ptr %8, align 4, !tbaa !32
  br label %70, !llvm.loop !146

94:                                               ; preds = %70
  %95 = load ptr, ptr %4, align 8, !tbaa !50
  %96 = getelementptr inbounds i8, ptr %95, i64 1
  %97 = load i8, ptr %96, align 1, !tbaa !67
  %98 = load ptr, ptr %4, align 8, !tbaa !50
  %99 = getelementptr inbounds i8, ptr %98, i64 0
  store i8 %97, ptr %99, align 1, !tbaa !67
  call void @llvm.lifetime.end.p0(i64 4, ptr %11) #8
  call void @llvm.lifetime.end.p0(i64 4, ptr %10) #8
  call void @llvm.lifetime.end.p0(i64 4, ptr %9) #8
  call void @llvm.lifetime.end.p0(i64 4, ptr %8) #8
  call void @llvm.lifetime.end.p0(i64 4, ptr %7) #8
  ret void
}