; Function Attrs: cold nounwind optsize uwtable
define internal fastcc void @build_xlaw_table(ptr noundef captures(none) initializes((8192, 8193)) %0, ptr noundef readonly captures(none) %1, i32 noundef range(i32 213, 256) %2) unnamed_addr #2 {
  %4 = trunc nuw i32 %2 to i8
  %5 = getelementptr i8, ptr %0, i64 8192
  store i8 %4, ptr %5, align 1, !tbaa !55
  %6 = and i32 %2, 127
  br label %12

.loopexit:                                        ; preds = %27, %12
  %.1.lcssa = phi i32 [ %.03234, %12 ], [ %22, %27 ]
  %exitcond43.not = icmp eq i32 %16, 127
  br i1 %exitcond43.not, label %.preheader, label %12, !llvm.loop !124

.preheader:                                       ; preds = %.loopexit
  %7 = icmp slt i32 %.1.lcssa, 8192
  br i1 %7, label %.lr.ph39, label %._crit_edge

.lr.ph39:                                         ; preds = %.preheader
  %8 = and i8 %4, 63
  %9 = xor i8 %8, 63
  %10 = xor i8 %4, 127
  %11 = sext i32 %.1.lcssa to i64
  br label %30

12:                                               ; preds = %3, %.loopexit
  %.035 = phi i32 [ 0, %3 ], [ %16, %.loopexit ]
  %.03234 = phi i32 [ 1, %3 ], [ %.1.lcssa, %.loopexit ]
  %13 = xor i32 %.035, %2
  %14 = trunc nuw i32 %13 to i8
  %15 = tail call i32 %1(i8 noundef zeroext %14) #9, !callees !125
  %16 = add nuw nsw i32 %.035, 1
  %17 = xor i32 %16, %2
  %18 = trunc nuw i32 %17 to i8
  %19 = tail call i32 %1(i8 noundef zeroext %18) #9, !callees !125
  %20 = add i32 %15, 4
  %21 = add i32 %20, %19
  %22 = ashr i32 %21, 3
  %23 = icmp slt i32 %.03234, %22
  br i1 %23, label %.lr.ph, label %.loopexit

.lr.ph:                                           ; preds = %12
  %24 = xor i32 %.035, %6
  %25 = trunc nuw i32 %24 to i8
  %26 = sext i32 %.03234 to i64
  %wide.trip.count = sext i32 %22 to i64
  br label %27

27:                                               ; preds = %.lr.ph, %27
  %indvars.iv = phi i64 [ %26, %.lr.ph ], [ %indvars.iv.next, %27 ]
  %28 = sub nsw i64 8192, %indvars.iv
  %29 = getelementptr inbounds i8, ptr %0, i64 %28
  store i8 %25, ptr %29, align 1, !tbaa !55
  %gep = getelementptr i8, ptr %5, i64 %indvars.iv
  store i8 %14, ptr %gep, align 1, !tbaa !55
  %indvars.iv.next = add nsw i64 %indvars.iv, 1
  %exitcond.not = icmp eq i64 %indvars.iv.next, %wide.trip.count
  br i1 %exitcond.not, label %.loopexit, label %27, !llvm.loop !126

30:                                               ; preds = %.lr.ph39, %30
  %indvars.iv47 = phi i64 [ %11, %.lr.ph39 ], [ %indvars.iv.next48, %30 ]
  %31 = sub nsw i64 8192, %indvars.iv47
  %32 = getelementptr inbounds nuw i8, ptr %0, i64 %31
  store i8 %9, ptr %32, align 1, !tbaa !55
  %gep37 = getelementptr i8, ptr %5, i64 %indvars.iv47
  store i8 %10, ptr %gep37, align 1, !tbaa !55
  %indvars.iv.next48 = add nsw i64 %indvars.iv47, 1
  %33 = and i64 %indvars.iv.next48, 4294967295
  %exitcond50.not = icmp eq i64 %33, 8192
  br i1 %exitcond50.not, label %._crit_edge, label %30, !llvm.loop !127

._crit_edge:                                      ; preds = %30, %.preheader
  %34 = getelementptr inbounds nuw i8, ptr %0, i64 1
  %35 = load i8, ptr %34, align 1, !tbaa !55
  store i8 %35, ptr %0, align 1, !tbaa !55
  ret void
}